; Function Attrs: mustprogress nofree norecurse nosync nounwind willreturn memory(argmem: write) uwtable
define void @_ZN6icu_7510UnicodeSetC2Ev(ptr noundef nonnull align 8 dereferenceable(200) %this) unnamed_addr #10 align 2 {
entry:
  %0 = getelementptr inbounds i8, ptr %this, i64 8
  store ptr getelementptr inbounds ({ [35 x ptr], [8 x ptr] }, ptr @_ZTVN6icu_7510UnicodeSetE, i64 0, i32 0, i64 2), ptr %this, align 8
  store ptr getelementptr inbounds ({ [35 x ptr], [8 x ptr] }, ptr @_ZTVN6icu_7510UnicodeSetE, i64 0, i32 1, i64 2), ptr %0, align 8
  %list = getelementptr inbounds i8, ptr %this, i64 16
  %stackList = getelementptr inbounds i8, ptr %this, i64 96
  store ptr %stackList, ptr %list, align 8
  %capacity = getelementptr inbounds i8, ptr %this, i64 24
  store i32 25, ptr %capacity, align 8
  %len = getelementptr inbounds i8, ptr %this, i64 28
  store i32 1, ptr %len, align 4
  %fFlags = getelementptr inbounds i8, ptr %this, i64 32
  store i8 0, ptr %fFlags, align 8
  %bmpSet = getelementptr inbounds i8, ptr %this, i64 40
  %pat = getelementptr inbounds i8, ptr %this, i64 64
  store ptr null, ptr %pat, align 8
  %patLen = getelementptr inbounds i8, ptr %this, i64 72
  store i32 0, ptr %patLen, align 8
  %strings = getelementptr inbounds i8, ptr %this, i64 80
  tail call void @llvm.memset.p0.i64(ptr noundef nonnull align 8 dereferenceable(20) %bmpSet, i8 0, i64 20, i1 false)
  tail call void @llvm.memset.p0.i64(ptr noundef nonnull align 8 dereferenceable(16) %strings, i8 0, i64 16, i1 false)
  store i32 1114112, ptr %stackList, align 8
  ret void
}